
_interrupt:
	MOVWF      R15+0
	SWAPF      STATUS+0, 0
	CLRF       STATUS+0
	MOVWF      ___saveSTATUS+0
	MOVF       PCLATH+0, 0
	MOVWF      ___savePCLATH+0
	CLRF       PCLATH+0
;Transmitter.c,7 :: 		interrupt ()
;Transmitter.c,9 :: 		if (INTCON & 0x04){    // check if the interrupt is caused by TMR0
	BTFSS      INTCON+0, 2
	GOTO       L_interrupt0
;Transmitter.c,10 :: 		intcon = intcon & 0xFb;
	MOVLW      251
	ANDWF      INTCON+0, 1
;Transmitter.c,11 :: 		tick++;
	INCF       _tick+0, 1
	BTFSC      STATUS+0, 2
	INCF       _tick+1, 1
;Transmitter.c,12 :: 		TMR0 = 0xFF - 0x50;
	MOVLW      175
	MOVWF      TMR0+0
;Transmitter.c,13 :: 		}
L_interrupt0:
;Transmitter.c,14 :: 		}
L__interrupt20:
	MOVF       ___savePCLATH+0, 0
	MOVWF      PCLATH+0
	SWAPF      ___saveSTATUS+0, 0
	MOVWF      STATUS+0
	SWAPF      R15+0, 1
	SWAPF      R15+0, 0
	RETFIE
; end of _interrupt

_delay:
;Transmitter.c,16 :: 		void delay(int sec){       //delay function
;Transmitter.c,17 :: 		INTCON = INTCON | 0x20;
	BSF        INTCON+0, 5
;Transmitter.c,18 :: 		tick=0;
	CLRF       _tick+0
	CLRF       _tick+1
;Transmitter.c,19 :: 		while(tick<sec);
L_delay1:
	MOVLW      128
	XORWF      _tick+1, 0
	MOVWF      R0+0
	MOVLW      128
	XORWF      FARG_delay_sec+1, 0
	SUBWF      R0+0, 0
	BTFSS      STATUS+0, 2
	GOTO       L__delay21
	MOVF       FARG_delay_sec+0, 0
	SUBWF      _tick+0, 0
L__delay21:
	BTFSC      STATUS+0, 0
	GOTO       L_delay2
	GOTO       L_delay1
L_delay2:
;Transmitter.c,20 :: 		INTCON = 0xC0;
	MOVLW      192
	MOVWF      INTCON+0
;Transmitter.c,21 :: 		}
	RETURN
; end of _delay

_main:
;Transmitter.c,24 :: 		void main (){
;Transmitter.c,25 :: 		option_reg = 0x07;        //prescale of 1:256
	MOVLW      7
	MOVWF      OPTION_REG+0
;Transmitter.c,26 :: 		PORTB = 0x00;
	CLRF       PORTB+0
;Transmitter.c,27 :: 		TRISB = 0b11111110; //port B all output except B0 for the external interrupt
	MOVLW      254
	MOVWF      TRISB+0
;Transmitter.c,28 :: 		TRISD = 0x00;
	CLRF       TRISD+0
;Transmitter.c,29 :: 		USART_init();
	CALL       _USART_init+0
;Transmitter.c,30 :: 		while (1)
L_main3:
;Transmitter.c,36 :: 		if (portb & 0b00000010) //Check PORT RB1 if pressed
	BTFSS      PORTB+0, 1
	GOTO       L_main5
;Transmitter.c,39 :: 		USART_Tx(0x01);
	MOVLW      1
	MOVWF      FARG_USART_Tx+0
	MOVLW      0
	MOVWF      FARG_USART_Tx+1
	CALL       _USART_Tx+0
;Transmitter.c,40 :: 		while (!(portb & 0b00100000)); //Check PORT RB5 if pressed
L_main6:
	BTFSC      PORTB+0, 5
	GOTO       L_main7
	GOTO       L_main6
L_main7:
;Transmitter.c,42 :: 		USART_Tx(0x05); //
	MOVLW      5
	MOVWF      FARG_USART_Tx+0
	MOVLW      0
	MOVWF      FARG_USART_Tx+1
	CALL       _USART_Tx+0
;Transmitter.c,43 :: 		}
L_main5:
;Transmitter.c,45 :: 		if (portb & 0b00000100) //Check PORT RB2 if pressed
	BTFSS      PORTB+0, 2
	GOTO       L_main8
;Transmitter.c,48 :: 		USART_Tx(0x02);
	MOVLW      2
	MOVWF      FARG_USART_Tx+0
	MOVLW      0
	MOVWF      FARG_USART_Tx+1
	CALL       _USART_Tx+0
;Transmitter.c,49 :: 		while (!(portb & 0b00100000)); //Check PORT RB5 if pressed
L_main9:
	BTFSC      PORTB+0, 5
	GOTO       L_main10
	GOTO       L_main9
L_main10:
;Transmitter.c,51 :: 		USART_Tx(0x05); //
	MOVLW      5
	MOVWF      FARG_USART_Tx+0
	MOVLW      0
	MOVWF      FARG_USART_Tx+1
	CALL       _USART_Tx+0
;Transmitter.c,52 :: 		}
L_main8:
;Transmitter.c,53 :: 		if (portb & 0b00001000) //Check PORT RB3 if pressed
	BTFSS      PORTB+0, 3
	GOTO       L_main11
;Transmitter.c,56 :: 		USART_Tx(0x03); //
	MOVLW      3
	MOVWF      FARG_USART_Tx+0
	MOVLW      0
	MOVWF      FARG_USART_Tx+1
	CALL       _USART_Tx+0
;Transmitter.c,57 :: 		while (!(portb & 0b00100000)); //Check PORT RB5 if pressed
L_main12:
	BTFSC      PORTB+0, 5
	GOTO       L_main13
	GOTO       L_main12
L_main13:
;Transmitter.c,59 :: 		USART_Tx(0x05); //
	MOVLW      5
	MOVWF      FARG_USART_Tx+0
	MOVLW      0
	MOVWF      FARG_USART_Tx+1
	CALL       _USART_Tx+0
;Transmitter.c,60 :: 		}
L_main11:
;Transmitter.c,61 :: 		if (portb & 0b00010000) //Check PORT RB4 if pressed
	BTFSS      PORTB+0, 4
	GOTO       L_main14
;Transmitter.c,64 :: 		USART_Tx(0x04); //
	MOVLW      4
	MOVWF      FARG_USART_Tx+0
	MOVLW      0
	MOVWF      FARG_USART_Tx+1
	CALL       _USART_Tx+0
;Transmitter.c,65 :: 		while (!(portb & 0b00100000)); //Check PORT RB5 if pressed
L_main15:
	BTFSC      PORTB+0, 5
	GOTO       L_main16
	GOTO       L_main15
L_main16:
;Transmitter.c,67 :: 		USART_Tx(0x05); //
	MOVLW      5
	MOVWF      FARG_USART_Tx+0
	MOVLW      0
	MOVWF      FARG_USART_Tx+1
	CALL       _USART_Tx+0
;Transmitter.c,68 :: 		}
L_main14:
;Transmitter.c,72 :: 		}  //while
	GOTO       L_main3
;Transmitter.c,73 :: 		}  //main
	GOTO       $+0
; end of _main

_USART_init:
;Transmitter.c,75 :: 		void USART_init(void){
;Transmitter.c,76 :: 		TRISC = 0x80;//set the direction for the Tx and Rx Pins
	MOVLW      128
	MOVWF      TRISC+0
;Transmitter.c,77 :: 		SPBRG = 51; // High Speed, 9600bps
	MOVLW      51
	MOVWF      SPBRG+0
;Transmitter.c,78 :: 		TXSTA = 0x24; //select the Asynchronous mode, 8-bit data, high speed
	MOVLW      36
	MOVWF      TXSTA+0
;Transmitter.c,79 :: 		RCSTA = 0x90; // Enable the serial port, 8-bit data, continuous receive
	MOVLW      144
	MOVWF      RCSTA+0
;Transmitter.c,80 :: 		INTCON = INTCON | 0xC0;// GIE and PEIE
	MOVLW      192
	IORWF      INTCON+0, 1
;Transmitter.c,81 :: 		PIE1 =  PIE1 | 0x20;// Enable the RCIE
	BSF        PIE1+0, 5
;Transmitter.c,83 :: 		}
	RETURN
; end of _USART_init

_USART_Tx:
;Transmitter.c,85 :: 		void USART_Tx(int myChar){
;Transmitter.c,86 :: 		while(!(TXSTA & 0x02));
L_USART_Tx17:
	BTFSC      TXSTA+0, 1
	GOTO       L_USART_Tx18
	GOTO       L_USART_Tx17
L_USART_Tx18:
;Transmitter.c,87 :: 		TXREG = myChar;
	MOVF       FARG_USART_Tx_myChar+0, 0
	MOVWF      TXREG+0
;Transmitter.c,88 :: 		delay_ms(200);
	MOVLW      3
	MOVWF      R11+0
	MOVLW      8
	MOVWF      R12+0
	MOVLW      119
	MOVWF      R13+0
L_USART_Tx19:
	DECFSZ     R13+0, 1
	GOTO       L_USART_Tx19
	DECFSZ     R12+0, 1
	GOTO       L_USART_Tx19
	DECFSZ     R11+0, 1
	GOTO       L_USART_Tx19
;Transmitter.c,94 :: 		}
	RETURN
; end of _USART_Tx
